target datalayout = "e-m:e-p270:32:32-p271:32:32-p272:64:64-i64:64-i128:128-f80:128-n8:16:32:64-S128"
target triple = "x86_64-pc-linux-gnu"

%struct.strbuf = type { i64, i64, ptr }

@__const.fn_child_ready_fl.buf_payload = private unnamed_addr constant %struct.strbuf { i64 0, i64 0, ptr @strbuf_slopbuf }, align 8
@.str.23 = private unnamed_addr constant [45 x i8] c"child_ready[%d] pid:%d ready:%s elapsed:%.6f\00", align 1

; Function Attrs: nounwind uwtable
define internal void @fn_child_ready_fl(ptr noundef %0, i32 noundef %1, i64 noundef %2, i32 noundef %3, i32 noundef %4, ptr noundef %5, i64 noundef %6) #0 {
  %8 = alloca ptr, align 8
  %9 = alloca i32, align 4
  %10 = alloca i64, align 8
  %11 = alloca i32, align 4
  %12 = alloca i32, align 4
  %13 = alloca ptr, align 8
  %14 = alloca i64, align 8
  %15 = alloca %struct.strbuf, align 8
  %16 = alloca double, align 8
  store ptr %0, ptr %8, align 8, !tbaa !8
  store i32 %1, ptr %9, align 4, !tbaa !4
  store i64 %2, ptr %10, align 8, !tbaa !12
  store i32 %3, ptr %11, align 4, !tbaa !4
  store i32 %4, ptr %12, align 4, !tbaa !4
  store ptr %5, ptr %13, align 8, !tbaa !8
  store i64 %6, ptr %14, align 8, !tbaa !12
  call void @llvm.lifetime.start.p0(i64 24, ptr %15) #9
  call void @llvm.memcpy.p0.p0.i64(ptr align 8 %15, ptr align 8 @__const.fn_child_ready_fl.buf_payload, i64 24, i1 false)
  call void @llvm.lifetime.start.p0(i64 8, ptr %16) #9
  %17 = load i64, ptr %14, align 8, !tbaa !12
  %18 = uitofp i64 %17 to double
  %19 = fdiv double %18, 1.000000e+06
  store double %19, ptr %16, align 8, !tbaa !16
  %20 = load i32, ptr %11, align 4, !tbaa !4
  %21 = load i32, ptr %12, align 4, !tbaa !4
  %22 = load ptr, ptr %13, align 8, !tbaa !8
  %23 = load double, ptr %16, align 8, !tbaa !16
  call void (ptr, ptr, ...) @strbuf_addf(ptr noundef %15, ptr noundef @.str.23, i32 noundef %20, i32 noundef %21, ptr noundef %22, double noundef %23)
  %24 = load ptr, ptr %8, align 8, !tbaa !8
  %25 = load i32, ptr %9, align 4, !tbaa !4
  call void @normal_io_write_fl(ptr noundef %24, i32 noundef %25, ptr noundef %15)
  call void @strbuf_release(ptr noundef %15)
  call void @llvm.lifetime.end.p0(i64 8, ptr %16) #9
  call void @llvm.lifetime.end.p0(i64 24, ptr %15) #9
  ret void
}